; Function Attrs: nounwind uwtable
define noundef ptr @Abc_NtkIvyResyn(ptr noundef %0, i32 noundef %1, i32 noundef %2) local_unnamed_addr #0 {
  %4 = tail call ptr @Abc_NtkIvyBefore(ptr noundef %0, i32 noundef 0, i32 noundef 0)
  %5 = icmp eq ptr %4, null
  br i1 %5, label %9, label %6

6:                                                ; preds = %3
  %7 = tail call ptr @Ivy_ManResyn(ptr noundef nonnull %4, i32 noundef %1, i32 noundef %2) #15
  tail call void @Ivy_ManStop(ptr noundef nonnull %4) #15
  %8 = tail call ptr @Abc_NtkIvyAfter(ptr noundef %0, ptr noundef %7, i32 noundef 0, i32 noundef 0)
  tail call void @Ivy_ManStop(ptr noundef %7) #15
  br label %9

9:                                                ; preds = %3, %6
  %.0 = phi ptr [ %8, %6 ], [ null, %3 ]
  ret ptr %.0
}